; Function Attrs: nounwind uwtable
define internal i32 @trackitem_compare_element(ptr noundef readonly captures(none) %0, ptr noundef readonly captures(none) %1, ptr readnone captures(none) %2) #0 {
  %4 = load ptr, ptr %0, align 8
  %5 = load ptr, ptr %1, align 8
  %.val = load i64, ptr %4, align 8
  %.val4 = load i64, ptr %5, align 8
  %6 = load ptr, ptr @array_extra_data, align 8
  %7 = getelementptr inbounds nuw i8, ptr %6, i64 24
  %8 = load ptr, ptr %7, align 8
  %9 = getelementptr inbounds nuw i8, ptr %6, i64 8
  %10 = load i32, ptr %9, align 8
  %11 = tail call i64 @FunctionCall2Coll(ptr noundef %8, i32 noundef %10, i64 noundef %.val, i64 noundef %.val4) #7
  %12 = trunc i64 %11 to i32
  ret i32 %12
}